(lp0
(dp1
S'ahb'
p2
cnumpy.core.multiarray
_reconstruct
p3
(cnumpy
ndarray
p4
(I0
tp5
S'b'
p6
tp7
Rp8
(I1
(I1
tp9
cnumpy
dtype
p10
(S'f8'
p11
I0
I1
tp12
Rp13
(I3
S'<'
p14
NNNI-1
I-1
I0
tp15
bI00
S'\x7f\x14\xaeG\xe1z\x84?'
p16
tp17
bsS'dataset_stat'
p18
(lp19
cnumpy.core.multiarray
scalar
p20
(g10
(S'i8'
p21
I0
I1
tp22
Rp23
(I3
S'<'
p24
NNNI-1
I-1
I0
tp25
bS'\x83\xe5\x02\x00\x00\x00\x00\x00'
p26
tp27
Rp28
aI4096
aF0.1
ag20
(g23
S'B\x1d\x00\x00\x00\x00\x00\x00'
p29
tp30
Rp31
aF129.75322406062458
aI0
asS'dpcube'
p32
g3
(g4
(I0
tp33
g6
tp34
Rp35
(I1
(I1
tp36
g13
I00
S'\xbaI\x0c\x02+\x87\xa6?'
p37
tp38
bsS'HB'
p39
g3
(g4
(I0
tp40
g6
tp41
Rp42
(I1
(I1
tp43
g13
I00
S'\x9e\xc4 \xb0rh\x91?'
p44
tp45
bsS'AHP'
p46
g3
(g4
(I0
tp47
g6
tp48
Rp49
(I1
(I1
tp50
g13
I00
S'\x7f\x14\xaeG\xe1z\x84?'
p51
tp52
bsS'dawa'
p53
g3
(g4
(I0
tp54
g6
tp55
Rp56
(I1
(I1
tp57
g13
I00
S'\x7f\x14\xaeG\xe1z\x84?'
p58
tp59
bsS'DAWA'
p60
g3
(g4
(I0
tp61
g6
tp62
Rp63
(I1
(I1
tp64
g13
I00
S'~\x14\xaeG\xe1z\x84?'
p65
tp66
bsS'hb'
p67
g3
(g4
(I0
tp68
g6
tp69
Rp70
(I1
(I1
tp71
g13
I00
S'=\xdfO\x8d\x97n\x92?'
p72
tp73
bsS'DPCube'
p74
g3
(g4
(I0
tp75
g6
tp76
Rp77
(I1
(I1
tp78
g13
I00
S'j\x91\xed|?5\xae?'
p79
tp80
bsa(dp81
g2
g3
(g4
(I0
tp82
g6
tp83
Rp84
(I1
(I1
tp85
g13
I00
S'~\x14\xaeG\xe1z\x84?'
p86
tp87
bsg18
(lp88
g20
(g23
S'\xb6\x88\x01\x00\x00\x00\x00\x00'
p89
tp90
Rp91
aI4096
aF0.1
ag20
(g23
S'\xb0\x07\x00\x00\x00\x00\x00\x00'
p92
tp93
Rp94
aF127.02296820432514
aI0
asg32
g3
(g4
(I0
tp95
g6
tp96
Rp97
(I1
(I1
tp98
g13
I00
S'<\xdfO\x8d\x97n\xc2?'
p99
tp100
bsg39
g3
(g4
(I0
tp101
g6
tp102
Rp103
(I1
(I1
tp104
g13
I00
S'\xbdI\x0c\x02+\x87\x96?'
p105
tp106
bsg46
g3
(g4
(I0
tp107
g6
tp108
Rp109
(I1
(I1
tp110
g13
I00
S'}\x14\xaeG\xe1z\x84?'
p111
tp112
bsg53
g3
(g4
(I0
tp113
g6
tp114
Rp115
(I1
(I1
tp116
g13
I00
S'}\x14\xaeG\xe1z\x84?'
p117
tp118
bsg60
g3
(g4
(I0
tp119
g6
tp120
Rp121
(I1
(I1
tp122
g13
I00
S'~\x14\xaeG\xe1z\x84?'
p123
tp124
bsg67
g3
(g4
(I0
tp125
g6
tp126
Rp127
(I1
(I1
tp128
g13
I00
S'\x1d/\xdd$\x06\x81\x95?'
p129
tp130
bsg74
g3
(g4
(I0
tp131
g6
tp132
Rp133
(I1
(I1
tp134
g13
I00
S'\xdb\xf9~j\xbct\xa3?'
p135
tp136
bsa(dp137
g2
g3
(g4
(I0
tp138
g6
tp139
Rp140
(I1
(I1
tp141
g13
I00
S'\x7f\x14\xaeG\xe1z\x84?'
p142
tp143
bsg18
(lp144
g20
(g23
S'\x9d\x05\x03\x00\x00\x00\x00\x00'
p145
tp146
Rp147
aI4096
aF0.1
ag20
(g23
S'\x9bX\x00\x00\x00\x00\x00\x00'
p148
tp149
Rp150
aF770.1647241712058
aI0
asg32
g3
(g4
(I0
tp151
g6
tp152
Rp153
(I1
(I1
tp154
g13
I00
S'\x1a/\xdd$\x06\x81\xb5?'
p155
tp156
bsg39
g3
(g4
(I0
tp157
g6
tp158
Rp159
(I1
(I1
tp160
g13
I00
S'\x9e\xc4 \xb0rh\x91?'
p161
tp162
bsg46
g3
(g4
(I0
tp163
g6
tp164
Rp165
(I1
(I1
tp166
g13
I00
S'\x7f\x14\xaeG\xe1z\x84?'
p167
tp168
bsg53
g3
(g4
(I0
tp169
g6
tp170
Rp171
(I1
(I1
tp172
g13
I00
S'\x7f\x14\xaeG\xe1z\x84?'
p173
tp174
bsg60
g3
(g4
(I0
tp175
g6
tp176
Rp177
(I1
(I1
tp178
g13
I00
S'\x7f\x14\xaeG\xe1z\x84?'
p179
tp180
bsg67
g3
(g4
(I0
tp181
g6
tp182
Rp183
(I1
(I1
tp184
g13
I00
S'=\xdfO\x8d\x97n\x92?'
p185
tp186
bsg74
g3
(g4
(I0
tp187
g6
tp188
Rp189
(I1
(I1
tp190
g13
I00
S'I\x0c\x02+\x87\x16\xd1?'
p191
tp192
bsa(dp193
g2
g3
(g4
(I0
tp194
g6
tp195
Rp196
(I1
(I1
tp197
g13
I00
S'\x7f\x14\xaeG\xe1z\x84?'
p198
tp199
bsg18
(lp200
g20
(g23
S'\xb2/=\x01\x00\x00\x00\x00'
p201
tp202
Rp203
aI4096
aF0.1
ag20
(g23
S"\xe6y'\x00\x00\x00\x00\x00"
p204
tp205
Rp206
aF47859.490628901774
aI0
asg32
g3
(g4
(I0
tp207
g6
tp208
Rp209
(I1
(I1
tp210
g13
I00
S'\x1a/\xdd$\x06\x81\xb5?'
p211
tp212
bsg39
g3
(g4
(I0
tp213
g6
tp214
Rp215
(I1
(I1
tp216
g13
I00
S'\x9e\xc4 \xb0rh\x91?'
p217
tp218
bsg46
g3
(g4
(I0
tp219
g6
tp220
Rp221
(I1
(I1
tp222
g13
I00
S'\x7f\x14\xaeG\xe1z\x84?'
p223
tp224
bsg53
g3
(g4
(I0
tp225
g6
tp226
Rp227
(I1
(I1
tp228
g13
I00
S'\x7f\x14\xaeG\xe1z\x84?'
p229
tp230
bsg60
g3
(g4
(I0
tp231
g6
tp232
Rp233
(I1
(I1
tp234
g13
I00
S'\x7f\x14\xaeG\xe1z\x84?'
p235
tp236
bsg67
g3
(g4
(I0
tp237
g6
tp238
Rp239
(I1
(I1
tp240
g13
I00
S'=\xdfO\x8d\x97n\x92?'
p241
tp242
bsg74
g3
(g4
(I0
tp243
g6
tp244
Rp245
(I1
(I1
tp246
g13
I00
S'I\x0c\x02+\x87\x16\xd1?'
p247
tp248
bsa(dp249
g2
g3
(g4
(I0
tp250
g6
tp251
Rp252
(I1
(I1
tp253
g13
I00
S'\x7f\x14\xaeG\xe1z\x84?'
p254
tp255
bsg18
(lp256
g20
(g23
S'\xe7\x04\x1d\x00\x00\x00\x00\x00'
p257
tp258
Rp259
aI4096
aF0.1
ag20
(g23
S'\x9a,\x00\x00\x00\x00\x00\x00'
p260
tp261
Rp262
aF538.7948766095011
aI0
asg32
g3
(g4
(I0
tp263
g6
tp264
Rp265
(I1
(I1
tp266
g13
I00
S'j\xbct\x93\x18\x04\xb6?'
p267
tp268
bsg39
g3
(g4
(I0
tp269
g6
tp270
Rp271
(I1
(I1
tp272
g13
I00
S'\x9e\xc4 \xb0rh\x91?'
p273
tp274
bsg46
g3
(g4
(I0
tp275
g6
tp276
Rp277
(I1
(I1
tp278
g13
I00
S'\x7f\x14\xaeG\xe1z\x84?'
p279
tp280
bsg53
g3
(g4
(I0
tp281
g6
tp282
Rp283
(I1
(I1
tp284
g13
I00
S'\x7f\x14\xaeG\xe1z\x84?'
p285
tp286
bsg60
g3
(g4
(I0
tp287
g6
tp288
Rp289
(I1
(I1
tp290
g13
I00
S'\x7f\x14\xaeG\xe1z\x84?'
p291
tp292
bsg67
g3
(g4
(I0
tp293
g6
tp294
Rp295
(I1
(I1
tp296
g13
I00
S'=\xdfO\x8d\x97n\x92?'
p297
tp298
bsg74
g3
(g4
(I0
tp299
g6
tp300
Rp301
(I1
(I1
tp302
g13
I00
S'\xd2Mb\x10X9\xb4?'
p303
tp304
bsa(dp305
g2
g3
(g4
(I0
tp306
g6
tp307
Rp308
(I1
(I1
tp309
g13
I00
S'\x7f\x14\xaeG\xe1z\x84?'
p310
tp311
bsg18
(lp312
g20
(g23
S'\x16M\x05\x00\x00\x00\x00\x00'
p313
tp314
Rp315
aI4096
aF0.1
ag20
(g23
S'\xf3\x02\x00\x00\x00\x00\x00\x00'
p316
tp317
Rp318
aF102.43087909963484
aI0
asg32
g3
(g4
(I0
tp319
g6
tp320
Rp321
(I1
(I1
tp322
g13
I00
S'\x1c/\xdd$\x06\x81\xc5?'
p323
tp324
bsg39
g3
(g4
(I0
tp325
g6
tp326
Rp327
(I1
(I1
tp328
g13
I00
S'\x9e\xc4 \xb0rh\x91?'
p329
tp330
bsg46
g3
(g4
(I0
tp331
g6
tp332
Rp333
(I1
(I1
tp334
g13
I00
S'\x7f\x14\xaeG\xe1z\x84?'
p335
tp336
bsg53
g3
(g4
(I0
tp337
g6
tp338
Rp339
(I1
(I1
tp340
g13
I00
S'~\x14\xaeG\xe1z\x84?'
p341
tp342
bsg60
g3
(g4
(I0
tp343
g6
tp344
Rp345
(I1
(I1
tp346
g13
I00
S'}\x14\xaeG\xe1z\x84?'
p347
tp348
bsg67
g3
(g4
(I0
tp349
g6
tp350
Rp351
(I1
(I1
tp352
g13
I00
S'=\xdfO\x8d\x97n\x92?'
p353
tp354
bsg74
g3
(g4
(I0
tp355
g6
tp356
Rp357
(I1
(I1
tp358
g13
I00
S'\xba\x1e\x85\xebQ\xb8\x9e?'
p359
tp360
bsa(dp361
g2
g3
(g4
(I0
tp362
g6
tp363
Rp364
(I1
(I1
tp365
g13
I00
S'\x7f\x14\xaeG\xe1z\x84?'
p366
tp367
bsg18
(lp368
g20
(g23
S'\x80\x079\x00\x00\x00\x00\x00'
p369
tp370
Rp371
aI4096
aF0.1
ag20
(g23
S'H\x04\x06\x00\x00\x00\x00\x00'
p372
tp373
Rp374
aF13785.919288778632
aI0
asg32
g3
(g4
(I0
tp375
g6
tp376
Rp377
(I1
(I1
tp378
g13
I00
S'\x1a/\xdd$\x06\x81\xb5?'
p379
tp380
bsg39
g3
(g4
(I0
tp381
g6
tp382
Rp383
(I1
(I1
tp384
g13
I00
S'\x9e\xc4 \xb0rh\x91?'
p385
tp386
bsg46
g3
(g4
(I0
tp387
g6
tp388
Rp389
(I1
(I1
tp390
g13
I00
S'\x7f\x14\xaeG\xe1z\x84?'
p391
tp392
bsg53
g3
(g4
(I0
tp393
g6
tp394
Rp395
(I1
(I1
tp396
g13
I00
S'\x7f\x14\xaeG\xe1z\x84?'
p397
tp398
bsg60
g3
(g4
(I0
tp399
g6
tp400
Rp401
(I1
(I1
tp402
g13
I00
S'\x7f\x14\xaeG\xe1z\x84?'
p403
tp404
bsg67
g3
(g4
(I0
tp405
g6
tp406
Rp407
(I1
(I1
tp408
g13
I00
S'=\xdfO\x8d\x97n\x92?'
p409
tp410
bsg74
g3
(g4
(I0
tp411
g6
tp412
Rp413
(I1
(I1
tp414
g13
I00
S'I\x0c\x02+\x87\x16\xd1?'
p415
tp416
bsa(dp417
g2
g3
(g4
(I0
tp418
g6
tp419
Rp420
(I1
(I1
tp421
g13
I00
S'\x18\x04V\x0e-\xb2\x9d?'
p422
tp423
bsg18
(lp424
g20
(g23
S'rd\x00\x00\x00\x00\x00\x00'
p425
tp426
Rp427
aI4096
aF0.1
ag20
(g23
S'\xd7\x1c\x00\x00\x00\x00\x00\x00'
p428
tp429
Rp430
aF128.55860681995355
aI0
asg32
g3
(g4
(I0
tp431
g6
tp432
Rp433
(I1
(I1
tp434
g13
I00
S'\xde$\x06\x81\x95C\xdb?'
p435
tp436
bsg39
g3
(g4
(I0
tp437
g6
tp438
Rp439
(I1
(I1
tp440
g13
I00
S'z\x14\xaeG\xe1z\xb4?'
p441
tp442
bsg46
g3
(g4
(I0
tp443
g6
tp444
Rp445
(I1
(I1
tp446
g13
I00
S':\xb4\xc8v\xbe\x9f\x9a?'
p447
tp448
bsg53
g3
(g4
(I0
tp449
g6
tp450
Rp451
(I1
(I1
tp452
g13
I00
S'\x9c\xc4 \xb0rh\x91?'
p453
tp454
bsg60
g3
(g4
(I0
tp455
g6
tp456
Rp457
(I1
(I1
tp458
g13
I00
S'\x9b\xc4 \xb0rh\x91?'
p459
tp460
bsg67
g3
(g4
(I0
tp461
g6
tp462
Rp463
(I1
(I1
tp464
g13
I00
S'}\x14\xaeG\xe1z\xb4?'
p465
tp466
bsg74
g3
(g4
(I0
tp467
g6
tp468
Rp469
(I1
(I1
tp470
g13
I00
S'\x0e-\xb2\x9d\xef\xa7\xf6?'
p471
tp472
bsa(dp473
g2
g3
(g4
(I0
tp474
g6
tp475
Rp476
(I1
(I1
tp477
g13
I00
S'\x7f\x14\xaeG\xe1z\x84?'
p478
tp479
bsg18
(lp480
g20
(g23
S'$\xea2\x00\x00\x00\x00\x00'
p481
tp482
Rp483
aI4096
aF0.1
ag20
(g23
S',G\x03\x00\x00\x00\x00\x00'
p484
tp485
Rp486
aF3439.2472520613314
aI0
asg32
g3
(g4
(I0
tp487
g6
tp488
Rp489
(I1
(I1
tp490
g13
I00
S'\x1a/\xdd$\x06\x81\xb5?'
p491
tp492
bsg39
g3
(g4
(I0
tp493
g6
tp494
Rp495
(I1
(I1
tp496
g13
I00
S'\x9e\xc4 \xb0rh\x91?'
p497
tp498
bsg46
g3
(g4
(I0
tp499
g6
tp500
Rp501
(I1
(I1
tp502
g13
I00
S'\x7f\x14\xaeG\xe1z\x84?'
p503
tp504
bsg53
g3
(g4
(I0
tp505
g6
tp506
Rp507
(I1
(I1
tp508
g13
I00
S'\x7f\x14\xaeG\xe1z\x84?'
p509
tp510
bsg60
g3
(g4
(I0
tp511
g6
tp512
Rp513
(I1
(I1
tp514
g13
I00
S'\x7f\x14\xaeG\xe1z\x84?'
p515
tp516
bsg67
g3
(g4
(I0
tp517
g6
tp518
Rp519
(I1
(I1
tp520
g13
I00
S'=\xdfO\x8d\x97n\x92?'
p521
tp522
bsg74
g3
(g4
(I0
tp523
g6
tp524
Rp525
(I1
(I1
tp526
g13
I00
S'I\x0c\x02+\x87\x16\xd1?'
p527
tp528
bsa(dp529
g2
g3
(g4
(I0
tp530
g6
tp531
Rp532
(I1
(I1
tp533
g13
I00
S'\x7f\x14\xaeG\xe1z\x84?'
p534
tp535
bsg18
(lp536
g20
(g23
S'\x11 \x05\x00\x00\x00\x00\x00'
p537
tp538
Rp539
aI4096
aF0.1
ag20
(g23
S'\xd2\x0e\x00\x00\x00\x00\x00\x00'
p540
tp541
Rp542
aF190.73669302669225
aI0
asg32
g3
(g4
(I0
tp543
g6
tp544
Rp545
(I1
(I1
tp546
g13
I00
S'\x9d\xc4 \xb0rh\xa1?'
p547
tp548
bsg39
g3
(g4
(I0
tp549
g6
tp550
Rp551
(I1
(I1
tp552
g13
I00
S'\x9e\xc4 \xb0rh\x91?'
p553
tp554
bsg46
g3
(g4
(I0
tp555
g6
tp556
Rp557
(I1
(I1
tp558
g13
I00
S'\x7f\x14\xaeG\xe1z\x84?'
p559
tp560
bsg53
g3
(g4
(I0
tp561
g6
tp562
Rp563
(I1
(I1
tp564
g13
I00
S'\x7f\x14\xaeG\xe1z\x84?'
p565
tp566
bsg60
g3
(g4
(I0
tp567
g6
tp568
Rp569
(I1
(I1
tp570
g13
I00
S'}\x14\xaeG\xe1z\x84?'
p571
tp572
bsg67
g3
(g4
(I0
tp573
g6
tp574
Rp575
(I1
(I1
tp576
g13
I00
S'=\xdfO\x8d\x97n\x92?'
p577
tp578
bsg74
g3
(g4
(I0
tp579
g6
tp580
Rp581
(I1
(I1
tp582
g13
I00
S'\xf9~j\xbct\x93\x98?'
p583
tp584
bsa(dp585
g2
g3
(g4
(I0
tp586
g6
tp587
Rp588
(I1
(I1
tp589
g13
I00
S'\x7f\x14\xaeG\xe1z\x84?'
p590
tp591
bsg18
(lp592
g20
(g23
S'N\xd0t\x00\x00\x00\x00\x00'
p593
tp594
Rp595
aI4096
aF0.1
ag20
(g23
S'\xd8\xef\x00\x00\x00\x00\x00\x00'
p596
tp597
Rp598
aF2341.979237869953
aI0
asg32
g3
(g4
(I0
tp599
g6
tp600
Rp601
(I1
(I1
tp602
g13
I00
S'\x1a/\xdd$\x06\x81\xb5?'
p603
tp604
bsg39
g3
(g4
(I0
tp605
g6
tp606
Rp607
(I1
(I1
tp608
g13
I00
S'\x9e\xc4 \xb0rh\x91?'
p609
tp610
bsg46
g3
(g4
(I0
tp611
g6
tp612
Rp613
(I1
(I1
tp614
g13
I00
S'\x7f\x14\xaeG\xe1z\x84?'
p615
tp616
bsg53
g3
(g4
(I0
tp617
g6
tp618
Rp619
(I1
(I1
tp620
g13
I00
S'\x7f\x14\xaeG\xe1z\x84?'
p621
tp622
bsg60
g3
(g4
(I0
tp623
g6
tp624
Rp625
(I1
(I1
tp626
g13
I00
S'\x7f\x14\xaeG\xe1z\x84?'
p627
tp628
bsg67
g3
(g4
(I0
tp629
g6
tp630
Rp631
(I1
(I1
tp632
g13
I00
S'=\xdfO\x8d\x97n\x92?'
p633
tp634
bsg74
g3
(g4
(I0
tp635
g6
tp636
Rp637
(I1
(I1
tp638
g13
I00
S'I\x0c\x02+\x87\x16\xd1?'
p639
tp640
bsa(dp641
g2
g3
(g4
(I0
tp642
g6
tp643
Rp644
(I1
(I1
tp645
g13
I00
S'\x7f\x14\xaeG\xe1z\x84?'
p646
tp647
bsg18
(lp648
g20
(g23
S'/\x12\x02\x00\x00\x00\x00\x00'
p649
tp650
Rp651
aI4096
aF0.1
ag20
(g23
S'\x07\x11\x00\x00\x00\x00\x00\x00'
p652
tp653
Rp654
aF193.12880552903448
aI0
asg32
g3
(g4
(I0
tp655
g6
tp656
Rp657
(I1
(I1
tp658
g13
I00
S'\xfb~j\xbct\x93\xa8?'
p659
tp660
bsg39
g3
(g4
(I0
tp661
g6
tp662
Rp663
(I1
(I1
tp664
g13
I00
S'~\x14\xaeG\xe1z\x94?'
p665
tp666
bsg46
g3
(g4
(I0
tp667
g6
tp668
Rp669
(I1
(I1
tp670
g13
I00
S'\x7f\x14\xaeG\xe1z\x84?'
p671
tp672
bsg53
g3
(g4
(I0
tp673
g6
tp674
Rp675
(I1
(I1
tp676
g13
I00
S'\x7f\x14\xaeG\xe1z\x84?'
p677
tp678
bsg60
g3
(g4
(I0
tp679
g6
tp680
Rp681
(I1
(I1
tp682
g13
I00
S'}\x14\xaeG\xe1z\x84?'
p683
tp684
bsg67
g3
(g4
(I0
tp685
g6
tp686
Rp687
(I1
(I1
tp688
g13
I00
S'~\x14\xaeG\xe1z\x94?'
p689
tp690
bsg74
g3
(g4
(I0
tp691
g6
tp692
Rp693
(I1
(I1
tp694
g13
I00
S'\xbbI\x0c\x02+\x87\xa6?'
p695
tp696
bsa(dp697
g2
g3
(g4
(I0
tp698
g6
tp699
Rp700
(I1
(I1
tp701
g13
I00
S'\xda\xce\xf7S\xe3\xa5\xab?'
p702
tp703
bsg18
(lp704
g20
(g23
S'\x01E\x00\x00\x00\x00\x00\x00'
p705
tp706
Rp707
aI4096
aF0.1
ag20
(g23
S'\xc4A\x00\x00\x00\x00\x00\x00'
p708
tp709
Rp710
aF263.0440439105315
aI0
asg32
g3
(g4
(I0
tp711
g6
tp712
Rp713
(I1
(I1
tp714
g13
I00
S'x\xe9&1\x08\xac\xe4?'
p715
tp716
bsg39
g3
(g4
(I0
tp717
g6
tp718
Rp719
(I1
(I1
tp720
g13
I00
S'\x1a/\xdd$\x06\x81\xb5?'
p721
tp722
bsg46
g3
(g4
(I0
tp723
g6
tp724
Rp725
(I1
(I1
tp726
g13
I00
S'\x8aA`\xe5\xd0"\xab?'
p727
tp728
bsg53
g3
(g4
(I0
tp729
g6
tp730
Rp731
(I1
(I1
tp732
g13
I00
S'\x9a\x99\x99\x99\x99\x99\x99?'
p733
tp734
bsg60
g3
(g4
(I0
tp735
g6
tp736
Rp737
(I1
(I1
tp738
g13
I00
S'\xbaI\x0c\x02+\x87\x96?'
p739
tp740
bsg67
g3
(g4
(I0
tp741
g6
tp742
Rp743
(I1
(I1
tp744
g13
I00
S'\xc2\xf5(\\\x8f\xc2\xb5?'
p745
tp746
bsg74
g3
(g4
(I0
tp747
g6
tp748
Rp749
(I1
(I1
tp750
g13
I00
S'*\x87\x16\xd9\xce\xf7\xf5?'
p751
tp752
bsa(dp753
g2
g3
(g4
(I0
tp754
g6
tp755
Rp756
(I1
(I1
tp757
g13
I00
S'\x12\x83\xc0\xca\xa1E\xb6?'
p758
tp759
bsg18
(lp760
g20
(g23
S'\xc7$\x00\x00\x00\x00\x00\x00'
p761
tp762
Rp763
aI4096
aF0.1
ag20
(g23
S'\xde\n\x00\x00\x00\x00\x00\x00'
p764
tp765
Rp766
aF43.98305624074059
aI0
asg32
g3
(g4
(I0
tp767
g6
tp768
Rp769
(I1
(I1
tp770
g13
I00
S'\xc6v\xbe\x9f\x1a/\xed?'
p771
tp772
bsg39
g3
(g4
(I0
tp773
g6
tp774
Rp775
(I1
(I1
tp776
g13
I00
S'\n\xd7\xa3p=\n\xb7?'
p777
tp778
bsg46
g3
(g4
(I0
tp779
g6
tp780
Rp781
(I1
(I1
tp782
g13
I00
S'\xca\xa1E\xb6\xf3\xfd\xb4?'
p783
tp784
bsg53
g3
(g4
(I0
tp785
g6
tp786
Rp787
(I1
(I1
tp788
g13
I00
S'\xaa\xf1\xd2Mb\x10\xa8?'
p789
tp790
bsg60
g3
(g4
(I0
tp791
g6
tp792
Rp793
(I1
(I1
tp794
g13
I00
S'j\x91\xed|?5\xae?'
p795
tp796
bsg67
g3
(g4
(I0
tp797
g6
tp798
Rp799
(I1
(I1
tp800
g13
I00
S'\t\xd7\xa3p=\n\xb7?'
p801
tp802
bsg74
g3
(g4
(I0
tp803
g6
tp804
Rp805
(I1
(I1
tp806
g13
I00
S'\x8d\x97n\x12\x83\xc0\xf2?'
p807
tp808
bsa(dp809
g2
g3
(g4
(I0
tp810
g6
tp811
Rp812
(I1
(I1
tp813
g13
I00
S'\x7f\x14\xaeG\xe1z\x84?'
p814
tp815
bsg18
(lp816
g20
(g23
S'\x08r \x00\x00\x00\x00\x00'
p817
tp818
Rp819
aI4096
aF0.1
ag20
(g23
S'\xb6D\x00\x00\x00\x00\x00\x00'
p820
tp821
Rp822
aF644.2125518863352
aI0
asg32
g3
(g4
(I0
tp823
g6
tp824
Rp825
(I1
(I1
tp826
g13
I00
S'\x1a/\xdd$\x06\x81\xb5?'
p827
tp828
bsg39
g3
(g4
(I0
tp829
g6
tp830
Rp831
(I1
(I1
tp832
g13
I00
S'\x9e\xc4 \xb0rh\x91?'
p833
tp834
bsg46
g3
(g4
(I0
tp835
g6
tp836
Rp837
(I1
(I1
tp838
g13
I00
S'\x7f\x14\xaeG\xe1z\x84?'
p839
tp840
bsg53
g3
(g4
(I0
tp841
g6
tp842
Rp843
(I1
(I1
tp844
g13
I00
S'\x7f\x14\xaeG\xe1z\x84?'
p845
tp846
bsg60
g3
(g4
(I0
tp847
g6
tp848
Rp849
(I1
(I1
tp850
g13
I00
S'\x7f\x14\xaeG\xe1z\x84?'
p851
tp852
bsg67
g3
(g4
(I0
tp853
g6
tp854
Rp855
(I1
(I1
tp856
g13
I00
S'=\xdfO\x8d\x97n\x92?'
p857
tp858
bsg74
g3
(g4
(I0
tp859
g6
tp860
Rp861
(I1
(I1
tp862
g13
I00
S'\xd2Mb\x10X9\xb4?'
p863
tp864
bsa(dp865
g2
g3
(g4
(I0
tp866
g6
tp867
Rp868
(I1
(I1
tp869
g13
I00
S'\x7f\x14\xaeG\xe1z\x84?'
p870
tp871
bsg18
(lp872
g20
(g23
S'\xff\xc36\x00\x00\x00\x00\x00'
p873
tp874
Rp875
aI4096
aF0.1
ag20
(g23
S'\xcam\x03\x00\x00\x00\x00\x00'
p876
tp877
Rp878
aF3605.6480163146334
aI0
asg32
g3
(g4
(I0
tp879
g6
tp880
Rp881
(I1
(I1
tp882
g13
I00
S'\x1a/\xdd$\x06\x81\xb5?'
p883
tp884
bsg39
g3
(g4
(I0
tp885
g6
tp886
Rp887
(I1
(I1
tp888
g13
I00
S'\x9e\xc4 \xb0rh\x91?'
p889
tp890
bsg46
g3
(g4
(I0
tp891
g6
tp892
Rp893
(I1
(I1
tp894
g13
I00
S'\x7f\x14\xaeG\xe1z\x84?'
p895
tp896
bsg53
g3
(g4
(I0
tp897
g6
tp898
Rp899
(I1
(I1
tp900
g13
I00
S'\x7f\x14\xaeG\xe1z\x84?'
p901
tp902
bsg60
g3
(g4
(I0
tp903
g6
tp904
Rp905
(I1
(I1
tp906
g13
I00
S'\x7f\x14\xaeG\xe1z\x84?'
p907
tp908
bsg67
g3
(g4
(I0
tp909
g6
tp910
Rp911
(I1
(I1
tp912
g13
I00
S'=\xdfO\x8d\x97n\x92?'
p913
tp914
bsg74
g3
(g4
(I0
tp915
g6
tp916
Rp917
(I1
(I1
tp918
g13
I00
S'I\x0c\x02+\x87\x16\xd1?'
p919
tp920
bsa(dp921
g2
g3
(g4
(I0
tp922
g6
tp923
Rp924
(I1
(I1
tp925
g13
I00
S'\x7f\x14\xaeG\xe1z\x84?'
p926
tp927
bsg18
(lp928
g20
(g23
S'\xc2t\xaa\x01\x00\x00\x00\x00'
p929
tp930
Rp931
aI4096
aF0.1
ag20
(g23
S'\x18L\x00\x00\x00\x00\x00\x00'
p932
tp933
Rp934
aF3532.4242216627836
aI0
asg32
g3
(g4
(I0
tp935
g6
tp936
Rp937
(I1
(I1
tp938
g13
I00
S'\x1a/\xdd$\x06\x81\xb5?'
p939
tp940
bsg39
g3
(g4
(I0
tp941
g6
tp942
Rp943
(I1
(I1
tp944
g13
I00
S'\x9e\xc4 \xb0rh\x91?'
p945
tp946
bsg46
g3
(g4
(I0
tp947
g6
tp948
Rp949
(I1
(I1
tp950
g13
I00
S'\x7f\x14\xaeG\xe1z\x84?'
p951
tp952
bsg53
g3
(g4
(I0
tp953
g6
tp954
Rp955
(I1
(I1
tp956
g13
I00
S'\x7f\x14\xaeG\xe1z\x84?'
p957
tp958
bsg60
g3
(g4
(I0
tp959
g6
tp960
Rp961
(I1
(I1
tp962
g13
I00
S'\x7f\x14\xaeG\xe1z\x84?'
p963
tp964
bsg67
g3
(g4
(I0
tp965
g6
tp966
Rp967
(I1
(I1
tp968
g13
I00
S'=\xdfO\x8d\x97n\x92?'
p969
tp970
bsg74
g3
(g4
(I0
tp971
g6
tp972
Rp973
(I1
(I1
tp974
g13
I00
S'I\x0c\x02+\x87\x16\xd1?'
p975
tp976
bsa(dp977
g2
g3
(g4
(I0
tp978
g6
tp979
Rp980
(I1
(I1
tp981
g13
I00
S'\x7f\x14\xaeG\xe1z\x84?'
p982
tp983
bsg18
(lp984
g20
(g23
S'\xc1\x06=\x00\x00\x00\x00\x00'
p985
tp986
Rp987
aI4096
aF0.1
ag20
(g23
S'W~\x06\x00\x00\x00\x00\x00'
p988
tp989
Rp990
aF14740.66099179042
aI0
asg32
g3
(g4
(I0
tp991
g6
tp992
Rp993
(I1
(I1
tp994
g13
I00
S'\x1a/\xdd$\x06\x81\xb5?'
p995
tp996
bsg39
g3
(g4
(I0
tp997
g6
tp998
Rp999
(I1
(I1
tp1000
g13
I00
S'\x9e\xc4 \xb0rh\x91?'
p1001
tp1002
bsg46
g3
(g4
(I0
tp1003
g6
tp1004
Rp1005
(I1
(I1
tp1006
g13
I00
S'\x7f\x14\xaeG\xe1z\x84?'
p1007
tp1008
bsg53
g3
(g4
(I0
tp1009
g6
tp1010
Rp1011
(I1
(I1
tp1012
g13
I00
S'\x7f\x14\xaeG\xe1z\x84?'
p1013
tp1014
bsg60
g3
(g4
(I0
tp1015
g6
tp1016
Rp1017
(I1
(I1
tp1018
g13
I00
S'\x7f\x14\xaeG\xe1z\x84?'
p1019
tp1020
bsg67
g3
(g4
(I0
tp1021
g6
tp1022
Rp1023
(I1
(I1
tp1024
g13
I00
S'=\xdfO\x8d\x97n\x92?'
p1025
tp1026
bsg74
g3
(g4
(I0
tp1027
g6
tp1028
Rp1029
(I1
(I1
tp1030
g13
I00
S'I\x0c\x02+\x87\x16\xd1?'
p1031
tp1032
bsa.